target datalayout = "e-m:e-p270:32:32-p271:32:32-p272:64:64-i64:64-i128:128-f80:128-n8:16:32:64-S128"
target triple = "x86_64-pc-linux-gnu"

%class.LogTagSet = type { ptr, i64, [5 x i32], [4 x i8], %class.LogOutputList, %class.LogDecorators, ptr }
%class.LogOutputList = type <{ [6 x ptr], i32, [4 x i8] }>
%class.LogDecorators = type { i32 }
%class.G1GCPhaseTimes = type { i32, i64, double, [45 x ptr], double, double, double, double, double, double, double, double, double, double, double, double, double, double, double, double, double, double, double, double, double, double, double, double, double, double, %class.ReferenceProcessorPhaseTimes, %class.WeakProcessorTimes }
%class.ReferenceProcessorPhaseTimes = type { [5 x ptr], [3 x double], [3 x double], ptr, double, [4 x i64], [4 x i64], i8, ptr }
%class.WeakProcessorTimes = type { i32, i32, double, [10 x ptr] }

@.str.55 = private unnamed_addr constant [6 x i8] c"Other\00", align 1
@.str.119 = private unnamed_addr constant [14 x i8] c"  %s: %.2lfms\00", align 1
@.str.120 = private unnamed_addr constant [16 x i8] c"    %s: %.2lfms\00", align 1
@.str.145 = private unnamed_addr constant [25 x i8] c"Root Region Scan Waiting\00", align 1
@.str.146 = private unnamed_addr constant [14 x i8] c"Verify Before\00", align 1
@.str.147 = private unnamed_addr constant [13 x i8] c"Verify After\00", align 1
@_ZN16LogTagSetMappingILN6LogTag4typeE49ELS1_114ELS1_0ELS1_0ELS1_0ELS1_0EE7_tagsetE = linkonce_odr hidden global %class.LogTagSet zeroinitializer, comdat, align 8

; Function Attrs: mustprogress nounwind uwtable
define linkonce_odr hidden noundef zeroext i1 @_ZNK13LogOutputList8is_levelEN8LogLevel4typeE(ptr noundef nonnull align 8 dereferenceable(52) %0, i32 noundef %1) #1 comdat align 2 {
  %3 = alloca ptr, align 8
  %4 = alloca i32, align 4
  store ptr %0, ptr %3, align 8
  store i32 %1, ptr %4, align 4
  %5 = load ptr, ptr %3, align 8
  %6 = getelementptr inbounds %class.LogOutputList, ptr %5, i32 0, i32 0
  %7 = load i32, ptr %4, align 4
  %8 = zext i32 %7 to i64
  %9 = getelementptr inbounds [6 x ptr], ptr %6, i64 0, i64 %8
  %10 = load volatile ptr, ptr %9, align 8
  %11 = icmp ne ptr %10, null
  ret i1 %11
}

; Function Attrs: mustprogress nounwind uwtable
define linkonce_odr hidden noundef zeroext i1 @_ZNK9LogTagSet8is_levelEN8LogLevel4typeE(ptr noundef nonnull align 8 dereferenceable(112) %0, i32 noundef %1) #1 comdat align 2 {
  %3 = alloca ptr, align 8
  %4 = alloca i32, align 4
  store ptr %0, ptr %3, align 8
  store i32 %1, ptr %4, align 4
  %5 = load ptr, ptr %3, align 8
  %6 = getelementptr inbounds %class.LogTagSet, ptr %5, i32 0, i32 4
  %7 = load i32, ptr %4, align 4
  %8 = call noundef zeroext i1 @_ZNK13LogOutputList8is_levelEN8LogLevel4typeE(ptr noundef nonnull align 8 dereferenceable(52) %6, i32 noundef %7)
  ret i1 %8
}

; Function Attrs: mustprogress nounwind uwtable
define linkonce_odr hidden noundef nonnull align 8 dereferenceable(112) ptr @_ZN16LogTagSetMappingILN6LogTag4typeE49ELS1_114ELS1_0ELS1_0ELS1_0ELS1_0EE6tagsetEv() #1 comdat align 2 {
  ret ptr @_ZN16LogTagSetMappingILN6LogTag4typeE49ELS1_114ELS1_0ELS1_0ELS1_0ELS1_0EE7_tagsetE
}

; Function Attrs: mustprogress nounwind uwtable
define hidden void @_ZNK14G1GCPhaseTimes9info_timeEPKcd(ptr noundef nonnull align 8 dereferenceable(872) %0, ptr noundef %1, double noundef %2) #1 align 2 {
  %4 = alloca ptr, align 8
  %5 = alloca ptr, align 8
  %6 = alloca double, align 8
  store ptr %0, ptr %4, align 8
  store ptr %1, ptr %5, align 8
  store double %2, ptr %6, align 8
  %7 = call noundef zeroext i1 @_ZN7LogImplILN6LogTag4typeE49ELS1_114ELS1_0ELS1_0ELS1_0ELS1_0EE8is_levelEN8LogLevel4typeE(i32 noundef 3)
  br i1 %7, label %9, label %8

8:                                                ; preds = %3
  br label %12

9:                                                ; preds = %3
  %10 = load ptr, ptr %5, align 8
  %11 = load double, ptr %6, align 8
  call void (ptr, ...) @_ZN7LogImplILN6LogTag4typeE49ELS1_114ELS1_0ELS1_0ELS1_0ELS1_0EE5writeILN8LogLevel4typeE3EEEvPKcz(ptr noundef @.str.119, ptr noundef %10, double noundef %11)
  br label %12

12:                                               ; preds = %9, %8
  ret void
}

; Function Attrs: mustprogress nounwind uwtable
define linkonce_odr hidden noundef zeroext i1 @_ZN7LogImplILN6LogTag4typeE49ELS1_114ELS1_0ELS1_0ELS1_0ELS1_0EE8is_levelEN8LogLevel4typeE(i32 noundef %0) #1 comdat align 2 {
  %2 = alloca i32, align 4
  store i32 %0, ptr %2, align 4
  %3 = call noundef nonnull align 8 dereferenceable(112) ptr @_ZN16LogTagSetMappingILN6LogTag4typeE49ELS1_114ELS1_0ELS1_0ELS1_0ELS1_0EE6tagsetEv()
  %4 = load i32, ptr %2, align 4
  %5 = call noundef zeroext i1 @_ZNK9LogTagSet8is_levelEN8LogLevel4typeE(ptr noundef nonnull align 8 dereferenceable(112) %3, i32 noundef %4)
  ret i1 %5
}

; Function Attrs: mustprogress nounwind uwtable
define hidden void @_ZNK14G1GCPhaseTimes11print_otherEd(ptr noundef nonnull align 8 dereferenceable(872) %0, double noundef %1) #1 align 2 {
  %3 = alloca ptr, align 8
  %4 = alloca double, align 8
  store ptr %0, ptr %3, align 8
  store double %1, ptr %4, align 8
  %5 = load ptr, ptr %3, align 8
  %6 = getelementptr inbounds %class.G1GCPhaseTimes, ptr %5, i32 0, i32 2
  %7 = load double, ptr %6, align 8
  %8 = load double, ptr %4, align 8
  %9 = fsub double %7, %8
  call void @_ZNK14G1GCPhaseTimes9info_timeEPKcd(ptr noundef nonnull align 8 dereferenceable(872) %5, ptr noundef @.str.55, double noundef %9)
  ret void
}

; Function Attrs: mustprogress nounwind uwtable
define hidden void @_ZNK14G1GCPhaseTimes10debug_timeEPKcd(ptr noundef nonnull align 8 dereferenceable(872) %0, ptr noundef %1, double noundef %2) #1 align 2 {
  %4 = alloca ptr, align 8
  %5 = alloca ptr, align 8
  %6 = alloca double, align 8
  store ptr %0, ptr %4, align 8
  store ptr %1, ptr %5, align 8
  store double %2, ptr %6, align 8
  %7 = call noundef zeroext i1 @_ZN7LogImplILN6LogTag4typeE49ELS1_114ELS1_0ELS1_0ELS1_0ELS1_0EE8is_levelEN8LogLevel4typeE(i32 noundef 2)
  br i1 %7, label %9, label %8

8:                                                ; preds = %3
  br label %12

9:                                                ; preds = %3
  %10 = load ptr, ptr %5, align 8
  %11 = load double, ptr %6, align 8
  call void (ptr, ...) @_ZN7LogImplILN6LogTag4typeE49ELS1_114ELS1_0ELS1_0ELS1_0ELS1_0EE5writeILN8LogLevel4typeE2EEEvPKcz(ptr noundef @.str.120, ptr noundef %10, double noundef %11)
  br label %12

12:                                               ; preds = %9, %8
  ret void
}

; Function Attrs: mustprogress nounwind uwtable
define hidden void @_ZN14G1GCPhaseTimes5printEb(ptr noundef nonnull align 8 dereferenceable(872) %0, i1 noundef zeroext %1) #1 align 2 {
  %3 = alloca ptr, align 8
  %4 = alloca i8, align 1
  %5 = alloca double, align 8
  store ptr %0, ptr %3, align 8
  %6 = zext i1 %1 to i8
  store i8 %6, ptr %4, align 1
  %7 = load ptr, ptr %3, align 8
  %8 = getelementptr inbounds %class.G1GCPhaseTimes, ptr %7, i32 0, i32 18
  %9 = load double, ptr %8, align 8
  %10 = fcmp ogt double %9, 0.000000e+00
  br i1 %10, label %11, label %14

11:                                               ; preds = %2
  %12 = getelementptr inbounds %class.G1GCPhaseTimes, ptr %7, i32 0, i32 18
  %13 = load double, ptr %12, align 8
  call void @_ZNK14G1GCPhaseTimes10debug_timeEPKcd(ptr noundef nonnull align 8 dereferenceable(872) %7, ptr noundef @.str.145, double noundef %13)
  br label %14

14:                                               ; preds = %11, %2
  %15 = getelementptr inbounds %class.G1GCPhaseTimes, ptr %7, i32 0, i32 28
  %16 = load double, ptr %15, align 8
  %17 = fcmp ogt double %16, 0.000000e+00
  br i1 %17, label %18, label %21

18:                                               ; preds = %14
  %19 = getelementptr inbounds %class.G1GCPhaseTimes, ptr %7, i32 0, i32 28
  %20 = load double, ptr %19, align 8
  call void @_ZNK14G1GCPhaseTimes10debug_timeEPKcd(ptr noundef nonnull align 8 dereferenceable(872) %7, ptr noundef @.str.146, double noundef %20)
  br label %21

21:                                               ; preds = %18, %14
  store double 0.000000e+00, ptr %5, align 8
  %22 = getelementptr inbounds %class.G1GCPhaseTimes, ptr %7, i32 0, i32 18
  %23 = load double, ptr %22, align 8
  %24 = load double, ptr %5, align 8
  %25 = fadd double %24, %23
  store double %25, ptr %5, align 8
  %26 = getelementptr inbounds %class.G1GCPhaseTimes, ptr %7, i32 0, i32 28
  %27 = load double, ptr %26, align 8
  %28 = load double, ptr %5, align 8
  %29 = fadd double %28, %27
  store double %29, ptr %5, align 8
  %30 = call noundef double @_ZNK14G1GCPhaseTimes33print_pre_evacuate_collection_setEv(ptr noundef nonnull align 8 dereferenceable(872) %7)
  %31 = load double, ptr %5, align 8
  %32 = fadd double %31, %30
  store double %32, ptr %5, align 8
  %33 = call noundef double @_ZNK14G1GCPhaseTimes37print_evacuate_initial_collection_setEv(ptr noundef nonnull align 8 dereferenceable(872) %7)
  %34 = load double, ptr %5, align 8
  %35 = fadd double %34, %33
  store double %35, ptr %5, align 8
  %36 = call noundef double @_ZNK14G1GCPhaseTimes38print_evacuate_optional_collection_setEv(ptr noundef nonnull align 8 dereferenceable(872) %7)
  %37 = load double, ptr %5, align 8
  %38 = fadd double %37, %36
  store double %38, ptr %5, align 8
  %39 = load i8, ptr %4, align 1
  %40 = trunc i8 %39 to i1
  %41 = call noundef double @_ZNK14G1GCPhaseTimes34print_post_evacuate_collection_setEb(ptr noundef nonnull align 8 dereferenceable(872) %7, i1 noundef zeroext %40)
  %42 = load double, ptr %5, align 8
  %43 = fadd double %42, %41
  store double %43, ptr %5, align 8
  %44 = getelementptr inbounds %class.G1GCPhaseTimes, ptr %7, i32 0, i32 29
  %45 = load double, ptr %44, align 8
  %46 = load double, ptr %5, align 8
  %47 = fadd double %46, %45
  store double %47, ptr %5, align 8
  %48 = load double, ptr %5, align 8
  call void @_ZNK14G1GCPhaseTimes11print_otherEd(ptr noundef nonnull align 8 dereferenceable(872) %7, double noundef %48)
  %49 = getelementptr inbounds %class.G1GCPhaseTimes, ptr %7, i32 0, i32 29
  %50 = load double, ptr %49, align 8
  %51 = fcmp ogt double %50, 0.000000e+00
  br i1 %51, label %52, label %55

52:                                               ; preds = %21
  %53 = getelementptr inbounds %class.G1GCPhaseTimes, ptr %7, i32 0, i32 29
  %54 = load double, ptr %53, align 8
  call void @_ZNK14G1GCPhaseTimes10debug_timeEPKcd(ptr noundef nonnull align 8 dereferenceable(872) %7, ptr noundef @.str.147, double noundef %54)
  br label %55

55:                                               ; preds = %52, %21
  ret void
}