; Function Attrs: mustprogress nounwind uwtable
define hidden void @_ZN14G1GCPhaseTimes5printEb(ptr noundef nonnull align 8 dereferenceable(872) %0, i1 noundef zeroext %1) local_unnamed_addr #0 align 2 {
  %3 = getelementptr inbounds i8, ptr %0, i64 496
  %4 = load double, ptr %3, align 8
  %5 = fcmp ogt double %4, 0.000000e+00
  br i1 %5, label %6, label %_ZNK14G1GCPhaseTimes10debug_timeEPKcd.exit

6:                                                ; preds = %2
  %7 = load volatile ptr, ptr getelementptr inbounds (i8, ptr @_ZN16LogTagSetMappingILN6LogTag4typeE49ELS1_114ELS1_0ELS1_0ELS1_0ELS1_0EE7_tagsetE, i64 56), align 8
  %.not.i = icmp eq ptr %7, null
  br i1 %.not.i, label %_ZNK14G1GCPhaseTimes10debug_timeEPKcd.exit, label %8

8:                                                ; preds = %6
  tail call void (ptr, ...) @_ZN7LogImplILN6LogTag4typeE49ELS1_114ELS1_0ELS1_0ELS1_0ELS1_0EE5writeILN8LogLevel4typeE2EEEvPKcz(ptr noundef nonnull @.str.120, ptr noundef nonnull @.str.145, double noundef %4)
  br label %_ZNK14G1GCPhaseTimes10debug_timeEPKcd.exit

_ZNK14G1GCPhaseTimes10debug_timeEPKcd.exit:       ; preds = %8, %6, %2
  %9 = getelementptr inbounds i8, ptr %0, i64 576
  %10 = load double, ptr %9, align 8
  %11 = fcmp ogt double %10, 0.000000e+00
  br i1 %11, label %12, label %_ZNK14G1GCPhaseTimes10debug_timeEPKcd.exit12

12:                                               ; preds = %_ZNK14G1GCPhaseTimes10debug_timeEPKcd.exit
  %13 = load volatile ptr, ptr getelementptr inbounds (i8, ptr @_ZN16LogTagSetMappingILN6LogTag4typeE49ELS1_114ELS1_0ELS1_0ELS1_0ELS1_0EE7_tagsetE, i64 56), align 8
  %.not.i11 = icmp eq ptr %13, null
  br i1 %.not.i11, label %_ZNK14G1GCPhaseTimes10debug_timeEPKcd.exit12, label %14

14:                                               ; preds = %12
  tail call void (ptr, ...) @_ZN7LogImplILN6LogTag4typeE49ELS1_114ELS1_0ELS1_0ELS1_0ELS1_0EE5writeILN8LogLevel4typeE2EEEvPKcz(ptr noundef nonnull @.str.120, ptr noundef nonnull @.str.146, double noundef %10)
  %.pre = load double, ptr %9, align 8
  br label %_ZNK14G1GCPhaseTimes10debug_timeEPKcd.exit12

_ZNK14G1GCPhaseTimes10debug_timeEPKcd.exit12:     ; preds = %14, %12, %_ZNK14G1GCPhaseTimes10debug_timeEPKcd.exit
  %15 = phi double [ %.pre, %14 ], [ %10, %12 ], [ %10, %_ZNK14G1GCPhaseTimes10debug_timeEPKcd.exit ]
  %16 = load double, ptr %3, align 8
  %17 = tail call noundef double @_ZNK14G1GCPhaseTimes33print_pre_evacuate_collection_setEv(ptr noundef nonnull align 8 dereferenceable(872) %0)
  %18 = tail call noundef double @_ZNK14G1GCPhaseTimes37print_evacuate_initial_collection_setEv(ptr noundef nonnull align 8 dereferenceable(872) %0)
  %19 = tail call noundef double @_ZNK14G1GCPhaseTimes38print_evacuate_optional_collection_setEv(ptr noundef nonnull align 8 dereferenceable(872) %0)
  %20 = tail call noundef double @_ZNK14G1GCPhaseTimes34print_post_evacuate_collection_setEb(ptr noundef nonnull align 8 dereferenceable(872) %0, i1 noundef zeroext %1)
  %21 = getelementptr inbounds i8, ptr %0, i64 584
  %22 = load double, ptr %21, align 8
  %23 = getelementptr inbounds i8, ptr %0, i64 16
  %24 = load double, ptr %23, align 8
  %25 = load volatile ptr, ptr getelementptr inbounds (i8, ptr @_ZN16LogTagSetMappingILN6LogTag4typeE49ELS1_114ELS1_0ELS1_0ELS1_0ELS1_0EE7_tagsetE, i64 64), align 8
  %.not.i.i = icmp eq ptr %25, null
  br i1 %.not.i.i, label %_ZNK14G1GCPhaseTimes11print_otherEd.exit, label %26

26:                                               ; preds = %_ZNK14G1GCPhaseTimes10debug_timeEPKcd.exit12
  %27 = fadd double %16, 0.000000e+00
  %28 = fadd double %27, %15
  %29 = fadd double %28, %17
  %30 = fadd double %29, %18
  %31 = fadd double %30, %19
  %32 = fadd double %31, %20
  %33 = fadd double %32, %22
  %34 = fsub double %24, %33
  tail call void (ptr, ...) @_ZN7LogImplILN6LogTag4typeE49ELS1_114ELS1_0ELS1_0ELS1_0ELS1_0EE5writeILN8LogLevel4typeE3EEEvPKcz(ptr noundef nonnull @.str.119, ptr noundef nonnull @.str.55, double noundef %34)
  %.pre15 = load double, ptr %21, align 8
  br label %_ZNK14G1GCPhaseTimes11print_otherEd.exit

_ZNK14G1GCPhaseTimes11print_otherEd.exit:         ; preds = %_ZNK14G1GCPhaseTimes10debug_timeEPKcd.exit12, %26
  %35 = phi double [ %22, %_ZNK14G1GCPhaseTimes10debug_timeEPKcd.exit12 ], [ %.pre15, %26 ]
  %36 = fcmp ogt double %35, 0.000000e+00
  br i1 %36, label %37, label %_ZNK14G1GCPhaseTimes10debug_timeEPKcd.exit14

37:                                               ; preds = %_ZNK14G1GCPhaseTimes11print_otherEd.exit
  %38 = load volatile ptr, ptr getelementptr inbounds (i8, ptr @_ZN16LogTagSetMappingILN6LogTag4typeE49ELS1_114ELS1_0ELS1_0ELS1_0ELS1_0EE7_tagsetE, i64 56), align 8
  %.not.i13 = icmp eq ptr %38, null
  br i1 %.not.i13, label %_ZNK14G1GCPhaseTimes10debug_timeEPKcd.exit14, label %39

39:                                               ; preds = %37
  tail call void (ptr, ...) @_ZN7LogImplILN6LogTag4typeE49ELS1_114ELS1_0ELS1_0ELS1_0ELS1_0EE5writeILN8LogLevel4typeE2EEEvPKcz(ptr noundef nonnull @.str.120, ptr noundef nonnull @.str.147, double noundef %35)
  br label %_ZNK14G1GCPhaseTimes10debug_timeEPKcd.exit14

_ZNK14G1GCPhaseTimes10debug_timeEPKcd.exit14:     ; preds = %39, %37, %_ZNK14G1GCPhaseTimes11print_otherEd.exit
  ret void
}